target datalayout = "e-m:e-p270:32:32-p271:32:32-p272:64:64-i64:64-i128:128-f80:128-n8:16:32:64-S128"
target triple = "x86_64-pc-linux-gnu"

%struct.wl_list = type { ptr, ptr }
%struct.SDL_WaylandPenTool = type { i32, %struct.SDL_PenInfo, ptr, ptr, float, float, i8, [7 x float], i32, i32, [3 x i32], %struct.wl_list }
%struct.SDL_PenInfo = type { i32, float, i32, i32, i32 }

; Function Attrs: nounwind uwtable
define internal void @tablet_tool_handle_type(ptr noundef %0, ptr noundef %1, i32 noundef %2) #0 {
  %4 = alloca ptr, align 8
  %5 = alloca ptr, align 8
  %6 = alloca i32, align 4
  %7 = alloca ptr, align 8
  %8 = alloca i32, align 4
  store ptr %0, ptr %4, align 8
  store ptr %1, ptr %5, align 8
  store i32 %2, ptr %6, align 4
  call void @llvm.lifetime.start.p0(i64 8, ptr %7) #10
  %9 = load ptr, ptr %4, align 8
  store ptr %9, ptr %7, align 8
  %10 = load i32, ptr %6, align 4
  switch i32 %10, label %31 [
    i32 321, label %11
    i32 320, label %15
    i32 323, label %19
    i32 324, label %23
    i32 322, label %27
  ]

11:                                               ; preds = %3
  %12 = load ptr, ptr %7, align 8
  %13 = getelementptr inbounds nuw %struct.SDL_WaylandPenTool, ptr %12, i32 0, i32 1
  %14 = getelementptr inbounds nuw %struct.SDL_PenInfo, ptr %13, i32 0, i32 4
  store i32 1, ptr %14, align 4
  store i32 1, ptr %8, align 4
  br label %36

15:                                               ; preds = %3
  %16 = load ptr, ptr %7, align 8
  %17 = getelementptr inbounds nuw %struct.SDL_WaylandPenTool, ptr %16, i32 0, i32 1
  %18 = getelementptr inbounds nuw %struct.SDL_PenInfo, ptr %17, i32 0, i32 4
  store i32 2, ptr %18, align 4
  store i32 1, ptr %8, align 4
  br label %36

19:                                               ; preds = %3
  %20 = load ptr, ptr %7, align 8
  %21 = getelementptr inbounds nuw %struct.SDL_WaylandPenTool, ptr %20, i32 0, i32 1
  %22 = getelementptr inbounds nuw %struct.SDL_PenInfo, ptr %21, i32 0, i32 4
  store i32 3, ptr %22, align 4
  store i32 1, ptr %8, align 4
  br label %36

23:                                               ; preds = %3
  %24 = load ptr, ptr %7, align 8
  %25 = getelementptr inbounds nuw %struct.SDL_WaylandPenTool, ptr %24, i32 0, i32 1
  %26 = getelementptr inbounds nuw %struct.SDL_PenInfo, ptr %25, i32 0, i32 4
  store i32 5, ptr %26, align 4
  store i32 1, ptr %8, align 4
  br label %36

27:                                               ; preds = %3
  %28 = load ptr, ptr %7, align 8
  %29 = getelementptr inbounds nuw %struct.SDL_WaylandPenTool, ptr %28, i32 0, i32 1
  %30 = getelementptr inbounds nuw %struct.SDL_PenInfo, ptr %29, i32 0, i32 4
  store i32 4, ptr %30, align 4
  store i32 1, ptr %8, align 4
  br label %36

31:                                               ; preds = %3
  %32 = load ptr, ptr %7, align 8
  %33 = getelementptr inbounds nuw %struct.SDL_WaylandPenTool, ptr %32, i32 0, i32 1
  %34 = getelementptr inbounds nuw %struct.SDL_PenInfo, ptr %33, i32 0, i32 4
  store i32 0, ptr %34, align 4
  br label %35

35:                                               ; preds = %31
  store i32 0, ptr %8, align 4
  br label %36

36:                                               ; preds = %35, %27, %23, %19, %15, %11
  call void @llvm.lifetime.end.p0(i64 8, ptr %7) #10
  %37 = load i32, ptr %8, align 4
  switch i32 %37, label %39 [
    i32 0, label %38
    i32 1, label %38
  ]

38:                                               ; preds = %36, %36
  ret void

39:                                               ; preds = %36
  unreachable
}