; Function Attrs: mustprogress nofree norecurse nosync nounwind willreturn memory(argmem: write) uwtable
define internal void @tablet_tool_handle_type(ptr noundef writeonly captures(none) initializes((20, 24)) %0, ptr readnone captures(none) %1, i32 noundef %2) #5 {
  %switch.tableidx = add i32 %2, -320
  %4 = icmp ult i32 %switch.tableidx, 5
  br i1 %4, label %switch.lookup, label %6

switch.lookup:                                    ; preds = %3
  %5 = zext nneg i32 %switch.tableidx to i64
  %switch.gep = getelementptr inbounds nuw [5 x i32], ptr @switch.table.tablet_tool_handle_type, i64 0, i64 %5
  %switch.load = load i32, ptr %switch.gep, align 4
  br label %6

6:                                                ; preds = %3, %switch.lookup
  %.sink = phi i32 [ %switch.load, %switch.lookup ], [ 0, %3 ]
  %7 = getelementptr inbounds nuw i8, ptr %0, i64 20
  store i32 %.sink, ptr %7, align 4
  ret void
}